target datalayout = "e-m:e-p270:32:32-p271:32:32-p272:64:64-i64:64-i128:128-f80:128-n8:16:32:64-S128"
target triple = "x86_64-pc-linux-gnu"

; Function Attrs: inlinehint nounwind uwtable
define internal i32 @rnd_avg32(i32 noundef %0, i32 noundef %1) #2 {
  %3 = alloca i32, align 4
  %4 = alloca i32, align 4
  store i32 %0, ptr %3, align 4, !tbaa !9
  store i32 %1, ptr %4, align 4, !tbaa !9
  %5 = load i32, ptr %3, align 4, !tbaa !9
  %6 = load i32, ptr %4, align 4, !tbaa !9
  %7 = or i32 %5, %6
  %8 = zext i32 %7 to i64
  %9 = load i32, ptr %3, align 4, !tbaa !9
  %10 = load i32, ptr %4, align 4, !tbaa !9
  %11 = xor i32 %9, %10
  %12 = zext i32 %11 to i64
  %13 = and i64 %12, -16843010
  %14 = lshr i64 %13, 1
  %15 = sub i64 %8, %14
  %16 = trunc i64 %15 to i32
  ret i32 %16
}

; Function Attrs: inlinehint nounwind uwtable
define internal void @put_pixels8_l2_8(ptr noundef %0, ptr noundef %1, ptr noundef %2, i32 noundef %3, i32 noundef %4, i32 noundef %5, i32 noundef %6) #2 {
  %8 = alloca ptr, align 8
  %9 = alloca ptr, align 8
  %10 = alloca ptr, align 8
  %11 = alloca i32, align 4
  %12 = alloca i32, align 4
  %13 = alloca i32, align 4
  %14 = alloca i32, align 4
  %15 = alloca i32, align 4
  %16 = alloca i32, align 4
  %17 = alloca i32, align 4
  store ptr %0, ptr %8, align 8, !tbaa !12
  store ptr %1, ptr %9, align 8, !tbaa !12
  store ptr %2, ptr %10, align 8, !tbaa !12
  store i32 %3, ptr %11, align 4, !tbaa !9
  store i32 %4, ptr %12, align 4, !tbaa !9
  store i32 %5, ptr %13, align 4, !tbaa !9
  store i32 %6, ptr %14, align 4, !tbaa !9
  call void @llvm.lifetime.start.p0(i64 4, ptr %15) #4
  store i32 0, ptr %15, align 4, !tbaa !9
  br label %18

18:                                               ; preds = %72, %7
  %19 = load i32, ptr %15, align 4, !tbaa !9
  %20 = load i32, ptr %14, align 4, !tbaa !9
  %21 = icmp slt i32 %19, %20
  br i1 %21, label %22, label %75

22:                                               ; preds = %18
  call void @llvm.lifetime.start.p0(i64 4, ptr %16) #4
  call void @llvm.lifetime.start.p0(i64 4, ptr %17) #4
  %23 = load ptr, ptr %9, align 8, !tbaa !12
  %24 = load i32, ptr %15, align 4, !tbaa !9
  %25 = load i32, ptr %12, align 4, !tbaa !9
  %26 = mul nsw i32 %24, %25
  %27 = sext i32 %26 to i64
  %28 = getelementptr inbounds i8, ptr %23, i64 %27
  %29 = load i32, ptr %28, align 1, !tbaa !16
  store i32 %29, ptr %16, align 4, !tbaa !9
  %30 = load ptr, ptr %10, align 8, !tbaa !12
  %31 = load i32, ptr %15, align 4, !tbaa !9
  %32 = load i32, ptr %13, align 4, !tbaa !9
  %33 = mul nsw i32 %31, %32
  %34 = sext i32 %33 to i64
  %35 = getelementptr inbounds i8, ptr %30, i64 %34
  %36 = load i32, ptr %35, align 1, !tbaa !16
  store i32 %36, ptr %17, align 4, !tbaa !9
  %37 = load i32, ptr %16, align 4, !tbaa !9
  %38 = load i32, ptr %17, align 4, !tbaa !9
  %39 = call i32 @rnd_avg32(i32 noundef %37, i32 noundef %38)
  %40 = load ptr, ptr %8, align 8, !tbaa !12
  %41 = load i32, ptr %15, align 4, !tbaa !9
  %42 = load i32, ptr %11, align 4, !tbaa !9
  %43 = mul nsw i32 %41, %42
  %44 = sext i32 %43 to i64
  %45 = getelementptr inbounds i8, ptr %40, i64 %44
  store i32 %39, ptr %45, align 4, !tbaa !9
  %46 = load ptr, ptr %9, align 8, !tbaa !12
  %47 = load i32, ptr %15, align 4, !tbaa !9
  %48 = load i32, ptr %12, align 4, !tbaa !9
  %49 = mul nsw i32 %47, %48
  %50 = sext i32 %49 to i64
  %51 = add i64 %50, 4
  %52 = getelementptr inbounds nuw i8, ptr %46, i64 %51
  %53 = load i32, ptr %52, align 1, !tbaa !16
  store i32 %53, ptr %16, align 4, !tbaa !9
  %54 = load ptr, ptr %10, align 8, !tbaa !12
  %55 = load i32, ptr %15, align 4, !tbaa !9
  %56 = load i32, ptr %13, align 4, !tbaa !9
  %57 = mul nsw i32 %55, %56
  %58 = sext i32 %57 to i64
  %59 = add i64 %58, 4
  %60 = getelementptr inbounds nuw i8, ptr %54, i64 %59
  %61 = load i32, ptr %60, align 1, !tbaa !16
  store i32 %61, ptr %17, align 4, !tbaa !9
  %62 = load i32, ptr %16, align 4, !tbaa !9
  %63 = load i32, ptr %17, align 4, !tbaa !9
  %64 = call i32 @rnd_avg32(i32 noundef %62, i32 noundef %63)
  %65 = load ptr, ptr %8, align 8, !tbaa !12
  %66 = load i32, ptr %15, align 4, !tbaa !9
  %67 = load i32, ptr %11, align 4, !tbaa !9
  %68 = mul nsw i32 %66, %67
  %69 = sext i32 %68 to i64
  %70 = add i64 %69, 4
  %71 = getelementptr inbounds nuw i8, ptr %65, i64 %70
  store i32 %64, ptr %71, align 4, !tbaa !9
  call void @llvm.lifetime.end.p0(i64 4, ptr %17) #4
  call void @llvm.lifetime.end.p0(i64 4, ptr %16) #4
  br label %72

72:                                               ; preds = %22
  %73 = load i32, ptr %15, align 4, !tbaa !9
  %74 = add nsw i32 %73, 1
  store i32 %74, ptr %15, align 4, !tbaa !9
  br label %18, !llvm.loop !36

75:                                               ; preds = %18
  call void @llvm.lifetime.end.p0(i64 4, ptr %15) #4
  ret void
}

; Function Attrs: inlinehint nounwind uwtable
define internal void @put_pixels8_x2_8_c(ptr noundef %0, ptr noundef %1, i64 noundef %2, i32 noundef %3) #2 {
  %5 = alloca ptr, align 8
  %6 = alloca ptr, align 8
  %7 = alloca i64, align 8
  %8 = alloca i32, align 4
  store ptr %0, ptr %5, align 8, !tbaa !12
  store ptr %1, ptr %6, align 8, !tbaa !12
  store i64 %2, ptr %7, align 8, !tbaa !14
  store i32 %3, ptr %8, align 4, !tbaa !9
  %9 = load ptr, ptr %5, align 8, !tbaa !12
  %10 = load ptr, ptr %6, align 8, !tbaa !12
  %11 = load ptr, ptr %6, align 8, !tbaa !12
  %12 = getelementptr inbounds i8, ptr %11, i64 1
  %13 = load i64, ptr %7, align 8, !tbaa !14
  %14 = trunc i64 %13 to i32
  %15 = load i64, ptr %7, align 8, !tbaa !14
  %16 = trunc i64 %15 to i32
  %17 = load i64, ptr %7, align 8, !tbaa !14
  %18 = trunc i64 %17 to i32
  %19 = load i32, ptr %8, align 4, !tbaa !9
  call void @put_pixels8_l2_8(ptr noundef %9, ptr noundef %10, ptr noundef %12, i32 noundef %14, i32 noundef %16, i32 noundef %18, i32 noundef %19)
  ret void
}