; Function Attrs: inlinehint nofree norecurse nosync nounwind memory(argmem: readwrite) uwtable
define internal void @put_pixels8_x2_8_c(ptr noundef writeonly captures(none) %0, ptr noundef readonly captures(none) %1, i64 noundef %2, i32 noundef %3) #2 {
  %5 = getelementptr inbounds nuw i8, ptr %1, i64 1
  %6 = icmp sgt i32 %3, 0
  br i1 %6, label %.lr.ph.preheader.i, label %put_pixels8_l2_8.exit

.lr.ph.preheader.i:                               ; preds = %4
  %sext = shl i64 %2, 32
  %7 = ashr exact i64 %sext, 32
  %wide.trip.count.i = zext nneg i32 %3 to i64
  br label %.lr.ph.i

.lr.ph.i:                                         ; preds = %.lr.ph.i, %.lr.ph.preheader.i
  %indvars.iv.i = phi i64 [ 0, %.lr.ph.preheader.i ], [ %indvars.iv.next.i, %.lr.ph.i ]
  %8 = mul nsw i64 %indvars.iv.i, %7
  %9 = getelementptr inbounds i8, ptr %1, i64 %8
  %10 = load i32, ptr %9, align 1, !tbaa !8
  %11 = getelementptr inbounds i8, ptr %5, i64 %8
  %12 = load i32, ptr %11, align 1, !tbaa !8
  %13 = or i32 %12, %10
  %14 = xor i32 %12, %10
  %15 = lshr i32 %14, 1
  %16 = and i32 %15, 2139062143
  %17 = sub i32 %13, %16
  %18 = getelementptr inbounds i8, ptr %0, i64 %8
  store i32 %17, ptr %18, align 4, !tbaa !9
  %19 = getelementptr i8, ptr %9, i64 4
  %20 = load i32, ptr %19, align 1, !tbaa !8
  %21 = getelementptr i8, ptr %11, i64 4
  %22 = load i32, ptr %21, align 1, !tbaa !8
  %23 = or i32 %22, %20
  %24 = xor i32 %22, %20
  %25 = lshr i32 %24, 1
  %26 = and i32 %25, 2139062143
  %27 = sub i32 %23, %26
  %28 = getelementptr i8, ptr %18, i64 4
  store i32 %27, ptr %28, align 4, !tbaa !9
  %indvars.iv.next.i = add nuw nsw i64 %indvars.iv.i, 1
  %exitcond.not.i = icmp eq i64 %indvars.iv.next.i, %wide.trip.count.i
  br i1 %exitcond.not.i, label %put_pixels8_l2_8.exit, label %.lr.ph.i, !llvm.loop !13

put_pixels8_l2_8.exit:                            ; preds = %.lr.ph.i, %4
  ret void
}